; Function Attrs: mustprogress uwtable
define dso_local void @_ZNK9struct_pb8compiler20StringFieldGenerator28generate_calculate_size_onlyEPN6google8protobuf2io7PrinterERKNSt7__cxx1112basic_stringIcSt11char_traitsIcESaIcEEE(ptr nocapture noundef nonnull readnone align 8 dereferenceable(64) %this, ptr noundef %p, ptr noundef nonnull align 8 dereferenceable(32) %value) local_unnamed_addr #3 align 2 personality ptr @__gxx_personality_v0 {
entry:
  %format = alloca %"class.struct_pb::compiler::Formatter", align 8
  store ptr %p, ptr %format, align 8
  %0 = getelementptr inbounds i8, ptr %format, i64 16
  store i32 0, ptr %0, align 8
  %_M_parent.i.i.i.i.i.i = getelementptr inbounds i8, ptr %format, i64 24
  store ptr null, ptr %_M_parent.i.i.i.i.i.i, align 8
  %_M_left.i.i.i.i.i.i = getelementptr inbounds i8, ptr %format, i64 32
  store ptr %0, ptr %_M_left.i.i.i.i.i.i, align 8
  %_M_right.i.i.i.i.i.i = getelementptr inbounds i8, ptr %format, i64 40
  store ptr %0, ptr %_M_right.i.i.i.i.i.i, align 8
  %_M_node_count.i.i.i.i.i.i = getelementptr inbounds i8, ptr %format, i64 48
  store i64 0, ptr %_M_node_count.i.i.i.i.i.i, align 8
  invoke void @_ZNK9struct_pb8compiler9FormatterclIJNSt7__cxx1112basic_stringIcSt11char_traitsIcESaIcEEEEEEvPKcDpRKT_(ptr noundef nonnull align 8 dereferenceable(56) %format, ptr noundef nonnull @.str, ptr noundef nonnull align 8 dereferenceable(32) %value)
          to label %invoke.cont unwind label %lpad

invoke.cont:                                      ; preds = %entry
  %vars_.i = getelementptr inbounds i8, ptr %format, i64 8
  %1 = load ptr, ptr %_M_parent.i.i.i.i.i.i, align 8
  invoke void @_ZNSt8_Rb_treeINSt7__cxx1112basic_stringIcSt11char_traitsIcESaIcEEESt4pairIKS5_S5_ESt10_Select1stIS8_ESt4lessIS5_ESaIS8_EE8_M_eraseEPSt13_Rb_tree_nodeIS8_E(ptr noundef nonnull align 8 dereferenceable(48) %vars_.i, ptr noundef %1)
          to label %_ZN9struct_pb8compiler9FormatterD2Ev.exit unwind label %terminate.lpad.i.i.i

terminate.lpad.i.i.i:                             ; preds = %invoke.cont
  %2 = landingpad { ptr, i32 }
          catch ptr null
  %3 = extractvalue { ptr, i32 } %2, 0
  call void @__clang_call_terminate(ptr %3) #20
  unreachable

_ZN9struct_pb8compiler9FormatterD2Ev.exit:        ; preds = %invoke.cont
  ret void

lpad:                                             ; preds = %entry
  %4 = landingpad { ptr, i32 }
          cleanup
  call void @_ZN9struct_pb8compiler9FormatterD2Ev(ptr noundef nonnull align 8 dereferenceable(56) %format) #19
  resume { ptr, i32 } %4
}